target datalayout = "e-m:e-p270:32:32-p271:32:32-p272:64:64-i64:64-i128:128-f80:128-n8:16:32:64-S128"
target triple = "x86_64-pc-linux-gnu"

%class.PacketListRecord = type <{ ptr, ptr, i32, i8, [3 x i8], i32, i8, [3 x i8], i32, i8, [3 x i8] }>
%struct.epan_dissect = type { ptr, ptr, ptr, %struct._packet_info }
%struct._packet_info = type { ptr, ptr, i32, i32, %struct.nstime_t, %struct.nstime_t, %struct.nstime_t, i32, ptr, ptr, ptr, ptr, %struct._address, %struct._address, %struct._address, %struct._address, %struct._address, %struct._address, i32, ptr, i32, %struct.anon.4, i32, i32, i32, i32, ptr, i32, ptr, ptr, i16, i16, i32, i32, i16, i32, i32, ptr, ptr, ptr, i8, i8, i16, i16, i16, i32, i16, i16, ptr, ptr, ptr, ptr, ptr, i32 }
%struct.nstime_t = type { i64, i32 }
%struct._address = type { i32, i32, ptr, ptr }
%struct.anon.4 = type { i8, [3 x i8] }
%struct.wtap_rec = type { i32, i32, i32, %struct.nstime_t, i32, %struct.nstime_t, i32, %union.anon, ptr, i32, %struct.Buffer }
%union.anon = type { %struct.wtap_packet_header }
%struct.wtap_packet_header = type { i32, i32, i32, i32, %union.wtap_pseudo_header }
%union.wtap_pseudo_header = type { %struct.erf_mc_phdr }
%struct.erf_mc_phdr = type { %struct.erf_phdr, [16 x %struct.erf_ehdr], %union.anon.1 }
%struct.erf_phdr = type { i64, i8, i8, i16, i16, i16 }
%struct.erf_ehdr = type { i64 }
%union.anon.1 = type { i32 }
%struct.Buffer = type { ptr, i64, i64, i64 }
%struct._capture_file = type { ptr, i32, ptr, ptr, i32, i32, i32, i64, i16, i32, i32, i32, ptr, i32, i64, i32, i32, i32, i32, i32, i32, %struct.nstime_t, i32, ptr, ptr, ptr, i32, i32, i32, ptr, i32, i32, i32, i32, i32, i32, i32, i32, ptr, i32, i32, i32, %struct.packet_provider_data, i32, i32, %struct.epan_column_info, ptr, ptr, ptr, %struct.wtap_rec, %struct.Buffer, ptr, i64, i32 }
%struct.packet_provider_data = type { ptr, ptr, ptr, ptr, ptr, ptr }
%struct.epan_column_info = type { ptr, i32, ptr, ptr, ptr, %struct.col_expr_t, i32, ptr }
%struct.col_expr_t = type { ptr, ptr }
%struct._frame_data = type { i32, i32, i32, i32, i64, ptr, ptr, ptr, i16, i16, %struct.nstime_t, %struct.nstime_t, i32, i32, i8 }
%struct.conversation = type { ptr, ptr, ptr, i32, i32, i32, ptr, ptr, i32, ptr }

@_ZN16PacketListRecord15rows_color_ver_E = global i32 1, align 4

; Function Attrs: mustprogress uwtable
define void @_ZN16PacketListRecord7dissectEP13_capture_filebb(ptr noundef nonnull align 8 dereferenceable(37) %0, ptr noundef %1, i1 noundef zeroext %2, i1 noundef zeroext %3) #4 align 2 {
  %5 = alloca ptr, align 8
  %6 = alloca ptr, align 8
  %7 = alloca i8, align 1
  %8 = alloca i8, align 1
  %9 = alloca %struct.epan_dissect, align 8
  %10 = alloca ptr, align 8
  %11 = alloca i32, align 4
  %12 = alloca %struct.wtap_rec, align 8
  %13 = alloca %struct.Buffer, align 8
  %14 = alloca ptr, align 8
  store ptr %0, ptr %5, align 8
  store ptr %1, ptr %6, align 8
  %15 = zext i1 %2 to i8
  store i8 %15, ptr %7, align 1
  %16 = zext i1 %3 to i8
  store i8 %16, ptr %8, align 1
  %17 = load ptr, ptr %5, align 8
  store ptr null, ptr %10, align 8
  %18 = load ptr, ptr %6, align 8
  %19 = icmp ne ptr %18, null
  br i1 %19, label %21, label %20

20:                                               ; preds = %4
  br label %148

21:                                               ; preds = %4
  %22 = load i8, ptr %7, align 1
  %23 = trunc i8 %22 to i1
  br i1 %23, label %24, label %27

24:                                               ; preds = %21
  %25 = load ptr, ptr %6, align 8
  %26 = getelementptr inbounds %struct._capture_file, ptr %25, i32 0, i32 45
  store ptr %26, ptr %10, align 8
  br label %27

27:                                               ; preds = %24, %21
  call void @wtap_rec_init(ptr noundef %12)
  call void @ws_buffer_init(ptr noundef %13, i64 noundef 1514)
  %28 = getelementptr inbounds %class.PacketListRecord, ptr %17, i32 0, i32 9
  %29 = load i8, ptr %28, align 4
  %30 = trunc i8 %29 to i1
  br i1 %30, label %31, label %40

31:                                               ; preds = %27
  %32 = load ptr, ptr %6, align 8
  %33 = getelementptr inbounds %class.PacketListRecord, ptr %17, i32 0, i32 1
  %34 = load ptr, ptr %33, align 8
  %35 = call i32 @cf_read_record_no_alert(ptr noundef %32, ptr noundef %34, ptr noundef %12, ptr noundef %13)
  %36 = icmp ne i32 %35, 0
  %37 = xor i1 %36, true
  %38 = getelementptr inbounds %class.PacketListRecord, ptr %17, i32 0, i32 9
  %39 = zext i1 %37 to i8
  store i8 %39, ptr %38, align 4
  br label %49

40:                                               ; preds = %27
  %41 = load ptr, ptr %6, align 8
  %42 = getelementptr inbounds %class.PacketListRecord, ptr %17, i32 0, i32 1
  %43 = load ptr, ptr %42, align 8
  %44 = call i32 @cf_read_record(ptr noundef %41, ptr noundef %43, ptr noundef %12, ptr noundef %13)
  %45 = icmp ne i32 %44, 0
  %46 = xor i1 %45, true
  %47 = getelementptr inbounds %class.PacketListRecord, ptr %17, i32 0, i32 9
  %48 = zext i1 %46 to i8
  store i8 %48, ptr %47, align 4
  br label %49

49:                                               ; preds = %40, %31
  %50 = getelementptr inbounds %class.PacketListRecord, ptr %17, i32 0, i32 9
  %51 = load i8, ptr %50, align 4
  %52 = trunc i8 %51 to i1
  br i1 %52, label %53, label %70

53:                                               ; preds = %49
  %54 = load i8, ptr %7, align 1
  %55 = trunc i8 %54 to i1
  br i1 %55, label %56, label %61

56:                                               ; preds = %53
  %57 = load ptr, ptr %10, align 8
  %58 = getelementptr inbounds %class.PacketListRecord, ptr %17, i32 0, i32 1
  %59 = load ptr, ptr %58, align 8
  call void @col_fill_in_error(ptr noundef %57, ptr noundef %59, i32 noundef 0, i32 noundef 0)
  %60 = load ptr, ptr %10, align 8
  call void @_ZN16PacketListRecord18cacheColumnStringsEP16epan_column_info(ptr noundef nonnull align 8 dereferenceable(37) %17, ptr noundef %60)
  br label %61

61:                                               ; preds = %56, %53
  %62 = load i8, ptr %8, align 1
  %63 = trunc i8 %62 to i1
  br i1 %63, label %64, label %69

64:                                               ; preds = %61
  %65 = getelementptr inbounds %class.PacketListRecord, ptr %17, i32 0, i32 1
  %66 = load ptr, ptr %65, align 8
  %67 = getelementptr inbounds %struct._frame_data, ptr %66, i32 0, i32 7
  store ptr null, ptr %67, align 8
  %68 = getelementptr inbounds %class.PacketListRecord, ptr %17, i32 0, i32 6
  store i8 1, ptr %68, align 4
  br label %69

69:                                               ; preds = %64, %61
  call void @ws_buffer_free(ptr noundef %13)
  call void @wtap_rec_cleanup(ptr noundef %12)
  br label %148

70:                                               ; preds = %49
  %71 = load i8, ptr %8, align 1
  %72 = trunc i8 %71 to i1
  br i1 %72, label %73, label %76

73:                                               ; preds = %70
  %74 = call i32 @color_filters_used()
  %75 = icmp ne i32 %74, 0
  br i1 %75, label %90, label %76

76:                                               ; preds = %73, %70
  %77 = load i8, ptr %7, align 1
  %78 = trunc i8 %77 to i1
  br i1 %78, label %79, label %88

79:                                               ; preds = %76
  %80 = load ptr, ptr %10, align 8
  %81 = call i32 @have_custom_cols(ptr noundef %80)
  %82 = icmp ne i32 %81, 0
  br i1 %82, label %86, label %83

83:                                               ; preds = %79
  %84 = call i32 @have_field_extractors()
  %85 = icmp ne i32 %84, 0
  br label %86

86:                                               ; preds = %83, %79
  %87 = phi i1 [ true, %79 ], [ %85, %83 ]
  br label %88

88:                                               ; preds = %86, %76
  %89 = phi i1 [ false, %76 ], [ %87, %86 ]
  br label %90

90:                                               ; preds = %88, %73
  %91 = phi i1 [ true, %73 ], [ %89, %88 ]
  %92 = zext i1 %91 to i32
  store i32 %92, ptr %11, align 4
  %93 = load ptr, ptr %6, align 8
  %94 = getelementptr inbounds %struct._capture_file, ptr %93, i32 0, i32 0
  %95 = load ptr, ptr %94, align 8
  %96 = load i32, ptr %11, align 4
  call void @epan_dissect_init(ptr noundef %9, ptr noundef %95, i32 noundef %96, i32 noundef 0)
  %97 = load i8, ptr %8, align 1
  %98 = trunc i8 %97 to i1
  br i1 %98, label %99, label %106

99:                                               ; preds = %90
  call void @color_filters_prime_edt(ptr noundef %9)
  %100 = getelementptr inbounds %class.PacketListRecord, ptr %17, i32 0, i32 1
  %101 = load ptr, ptr %100, align 8
  %102 = getelementptr inbounds %struct._frame_data, ptr %101, i32 0, i32 9
  %103 = load i16, ptr %102, align 2
  %104 = and i16 %103, -513
  %105 = or i16 %104, 512
  store i16 %105, ptr %102, align 2
  br label %106

106:                                              ; preds = %99, %90
  %107 = load i8, ptr %7, align 1
  %108 = trunc i8 %107 to i1
  br i1 %108, label %109, label %111

109:                                              ; preds = %106
  %110 = load ptr, ptr %10, align 8
  call void @col_custom_prime_edt(ptr noundef %9, ptr noundef %110)
  br label %111

111:                                              ; preds = %109, %106
  %112 = load ptr, ptr %6, align 8
  %113 = getelementptr inbounds %struct._capture_file, ptr %112, i32 0, i32 8
  %114 = load i16, ptr %113, align 8
  %115 = zext i16 %114 to i32
  %116 = load ptr, ptr %6, align 8
  %117 = getelementptr inbounds %struct._capture_file, ptr %116, i32 0, i32 42
  %118 = getelementptr inbounds %class.PacketListRecord, ptr %17, i32 0, i32 1
  %119 = load ptr, ptr %118, align 8
  %120 = call ptr @frame_tvbuff_new_buffer(ptr noundef %117, ptr noundef %119, ptr noundef %13)
  %121 = getelementptr inbounds %class.PacketListRecord, ptr %17, i32 0, i32 1
  %122 = load ptr, ptr %121, align 8
  %123 = load ptr, ptr %10, align 8
  call void @epan_dissect_run(ptr noundef %9, i32 noundef %115, ptr noundef %12, ptr noundef %120, ptr noundef %122, ptr noundef %123)
  %124 = load i8, ptr %7, align 1
  %125 = trunc i8 %124 to i1
  br i1 %125, label %126, label %128

126:                                              ; preds = %111
  call void @epan_dissect_fill_in_columns(ptr noundef %9, i32 noundef 0, i32 noundef 0)
  %127 = load ptr, ptr %10, align 8
  call void @_ZN16PacketListRecord18cacheColumnStringsEP16epan_column_info(ptr noundef nonnull align 8 dereferenceable(37) %17, ptr noundef %127)
  br label %128

128:                                              ; preds = %126, %111
  %129 = load i8, ptr %8, align 1
  %130 = trunc i8 %129 to i1
  br i1 %130, label %131, label %135

131:                                              ; preds = %128
  %132 = getelementptr inbounds %class.PacketListRecord, ptr %17, i32 0, i32 6
  store i8 1, ptr %132, align 4
  %133 = load i32, ptr @_ZN16PacketListRecord15rows_color_ver_E, align 4
  %134 = getelementptr inbounds %class.PacketListRecord, ptr %17, i32 0, i32 5
  store i32 %133, ptr %134, align 8
  br label %135

135:                                              ; preds = %131, %128
  %136 = getelementptr inbounds %struct.epan_dissect, ptr %9, i32 0, i32 3
  %137 = call ptr @find_conversation_pinfo(ptr noundef %136, i32 noundef 0)
  store ptr %137, ptr %14, align 8
  %138 = load ptr, ptr %14, align 8
  %139 = icmp ne ptr %138, null
  br i1 %139, label %141, label %140

140:                                              ; preds = %135
  br label %145

141:                                              ; preds = %135
  %142 = load ptr, ptr %14, align 8
  %143 = getelementptr inbounds %struct.conversation, ptr %142, i32 0, i32 3
  %144 = load i32, ptr %143, align 8
  br label %145

145:                                              ; preds = %141, %140
  %146 = phi i32 [ 0, %140 ], [ %144, %141 ]
  %147 = getelementptr inbounds %class.PacketListRecord, ptr %17, i32 0, i32 8
  store i32 %146, ptr %147, align 8
  call void @epan_dissect_cleanup(ptr noundef %9)
  call void @ws_buffer_free(ptr noundef %13)
  call void @wtap_rec_cleanup(ptr noundef %12)
  br label %148

148:                                              ; preds = %145, %69, %20
  ret void
}