; Function Attrs: mustprogress uwtable
define void @_ZN16PacketListRecord7dissectEP13_capture_filebb(ptr nocapture noundef nonnull align 8 dereferenceable(37) %0, ptr noundef %1, i1 noundef zeroext %2, i1 noundef zeroext %3) local_unnamed_addr #5 align 2 {
  %5 = alloca %struct.epan_dissect, align 8
  %6 = alloca %struct.wtap_rec, align 8
  %7 = alloca %struct.Buffer, align 8
  %.not = icmp eq ptr %1, null
  br i1 %.not, label %83, label %8

8:                                                ; preds = %4
  %9 = getelementptr inbounds i8, ptr %1, i64 304
  %spec.select = select i1 %2, ptr %9, ptr null
  call void @wtap_rec_init(ptr noundef nonnull %6)
  call void @ws_buffer_init(ptr noundef nonnull %7, i64 noundef 1514)
  %10 = getelementptr inbounds i8, ptr %0, i64 36
  %11 = load i8, ptr %10, align 4
  %12 = and i8 %11, 1
  %.not27 = icmp eq i8 %12, 0
  %13 = getelementptr inbounds i8, ptr %0, i64 8
  %14 = load ptr, ptr %13, align 8
  br i1 %.not27, label %17, label %15

15:                                               ; preds = %8
  %16 = call i32 @cf_read_record_no_alert(ptr noundef nonnull %1, ptr noundef %14, ptr noundef nonnull %6, ptr noundef nonnull %7)
  br label %19

17:                                               ; preds = %8
  %18 = call i32 @cf_read_record(ptr noundef nonnull %1, ptr noundef %14, ptr noundef nonnull %6, ptr noundef nonnull %7)
  br label %19

19:                                               ; preds = %17, %15
  %storemerge.in.in = phi i32 [ %18, %17 ], [ %16, %15 ]
  %storemerge.in = icmp eq i32 %storemerge.in.in, 0
  %storemerge = zext i1 %storemerge.in to i8
  store i8 %storemerge, ptr %10, align 4
  br i1 %storemerge.in, label %20, label %30

20:                                               ; preds = %19
  br i1 %2, label %21, label %24

21:                                               ; preds = %20
  %22 = getelementptr inbounds i8, ptr %0, i64 8
  %23 = load ptr, ptr %22, align 8
  call void @col_fill_in_error(ptr noundef nonnull %9, ptr noundef %23, i32 noundef 0, i32 noundef 0)
  call void @_ZN16PacketListRecord18cacheColumnStringsEP16epan_column_info(ptr noundef nonnull align 8 dereferenceable(37) %0, ptr noundef nonnull %9)
  br label %24

24:                                               ; preds = %21, %20
  br i1 %3, label %25, label %.sink.split

25:                                               ; preds = %24
  %26 = getelementptr inbounds i8, ptr %0, i64 8
  %27 = load ptr, ptr %26, align 8
  %28 = getelementptr inbounds i8, ptr %27, i64 40
  store ptr null, ptr %28, align 8
  %29 = getelementptr inbounds i8, ptr %0, i64 28
  store i8 1, ptr %29, align 4
  br label %.sink.split

30:                                               ; preds = %19
  br i1 %3, label %31, label %34

31:                                               ; preds = %30
  %32 = call i32 @color_filters_used()
  %.not30 = icmp eq i32 %32, 0
  %brmerge.not = and i1 %.not30, %2
  br i1 %brmerge.not, label %36, label %.thread

.thread:                                          ; preds = %31
  %not..not30 = xor i1 %.not30, true
  %.mux = zext i1 %not..not30 to i32
  %33 = load ptr, ptr %1, align 8
  call void @epan_dissect_init(ptr noundef nonnull %5, ptr noundef %33, i32 noundef %.mux, i32 noundef 0)
  br label %45

34:                                               ; preds = %30
  br i1 %2, label %36, label %.thread35

.thread35:                                        ; preds = %34
  %35 = load ptr, ptr %1, align 8
  call void @epan_dissect_init(ptr noundef nonnull %5, ptr noundef %35, i32 noundef 0, i32 noundef 0)
  br label %.critedge

36:                                               ; preds = %31, %34
  %37 = call i32 @have_custom_cols(ptr noundef %spec.select)
  %.not31 = icmp eq i32 %37, 0
  br i1 %.not31, label %38, label %42

38:                                               ; preds = %36
  %39 = call i32 @have_field_extractors()
  %40 = icmp ne i32 %39, 0
  %41 = zext i1 %40 to i32
  br label %42

42:                                               ; preds = %38, %36
  %43 = phi i32 [ 1, %36 ], [ %41, %38 ]
  %44 = load ptr, ptr %1, align 8
  call void @epan_dissect_init(ptr noundef nonnull %5, ptr noundef %44, i32 noundef %43, i32 noundef 0)
  br i1 %3, label %45, label %51

45:                                               ; preds = %.thread, %42
  call void @color_filters_prime_edt(ptr noundef nonnull %5)
  %46 = getelementptr inbounds i8, ptr %0, i64 8
  %47 = load ptr, ptr %46, align 8
  %48 = getelementptr inbounds i8, ptr %47, i64 50
  %49 = load i16, ptr %48, align 2
  %50 = or i16 %49, 512
  store i16 %50, ptr %48, align 2
  br label %51

51:                                               ; preds = %45, %42
  br i1 %2, label %52, label %.critedge

52:                                               ; preds = %51
  call void @col_custom_prime_edt(ptr noundef nonnull %5, ptr noundef nonnull %9)
  %53 = getelementptr inbounds i8, ptr %1, i64 56
  %54 = load i16, ptr %53, align 8
  %55 = zext i16 %54 to i32
  %56 = getelementptr inbounds i8, ptr %1, i64 248
  %57 = getelementptr inbounds i8, ptr %0, i64 8
  %58 = load ptr, ptr %57, align 8
  %59 = call ptr @frame_tvbuff_new_buffer(ptr noundef nonnull %56, ptr noundef %58, ptr noundef nonnull %7)
  %60 = load ptr, ptr %57, align 8
  call void @epan_dissect_run(ptr noundef nonnull %5, i32 noundef %55, ptr noundef nonnull %6, ptr noundef %59, ptr noundef %60, ptr noundef nonnull %9)
  call void @epan_dissect_fill_in_columns(ptr noundef nonnull %5, i32 noundef 0, i32 noundef 0)
  call void @_ZN16PacketListRecord18cacheColumnStringsEP16epan_column_info(ptr noundef nonnull align 8 dereferenceable(37) %0, ptr noundef nonnull %9)
  br label %69

.critedge:                                        ; preds = %.thread35, %51
  %61 = getelementptr inbounds i8, ptr %1, i64 56
  %62 = load i16, ptr %61, align 8
  %63 = zext i16 %62 to i32
  %64 = getelementptr inbounds i8, ptr %1, i64 248
  %65 = getelementptr inbounds i8, ptr %0, i64 8
  %66 = load ptr, ptr %65, align 8
  %67 = call ptr @frame_tvbuff_new_buffer(ptr noundef nonnull %64, ptr noundef %66, ptr noundef nonnull %7)
  %68 = load ptr, ptr %65, align 8
  call void @epan_dissect_run(ptr noundef nonnull %5, i32 noundef %63, ptr noundef nonnull %6, ptr noundef %67, ptr noundef %68, ptr noundef null)
  br label %69

69:                                               ; preds = %.critedge, %52
  br i1 %3, label %70, label %74

70:                                               ; preds = %69
  %71 = getelementptr inbounds i8, ptr %0, i64 28
  store i8 1, ptr %71, align 4
  %72 = load i32, ptr @_ZN16PacketListRecord15rows_color_ver_E, align 4
  %73 = getelementptr inbounds i8, ptr %0, i64 24
  store i32 %72, ptr %73, align 8
  br label %74

74:                                               ; preds = %70, %69
  %75 = getelementptr inbounds i8, ptr %5, i64 24
  %76 = call ptr @find_conversation_pinfo(ptr noundef nonnull %75, i32 noundef 0)
  %.not32 = icmp eq ptr %76, null
  br i1 %.not32, label %80, label %77

77:                                               ; preds = %74
  %78 = getelementptr inbounds i8, ptr %76, i64 24
  %79 = load i32, ptr %78, align 8
  br label %80

80:                                               ; preds = %74, %77
  %81 = phi i32 [ %79, %77 ], [ 0, %74 ]
  %82 = getelementptr inbounds i8, ptr %0, i64 32
  store i32 %81, ptr %82, align 8
  call void @epan_dissect_cleanup(ptr noundef nonnull %5)
  br label %.sink.split

.sink.split:                                      ; preds = %24, %25, %80
  call void @ws_buffer_free(ptr noundef nonnull %7)
  call void @wtap_rec_cleanup(ptr noundef nonnull %6)
  br label %83

83:                                               ; preds = %.sink.split, %4
  ret void
}